target datalayout = "e-m:e-p270:32:32-p271:32:32-p272:64:64-i64:64-i128:128-f80:128-n8:16:32:64-S128"
target triple = "x86_64-pc-linux-gnu"

%class.EnterInterpOnlyModeClosure = type { %class.HandshakeClosure, i8, ptr }
%class.HandshakeClosure = type { %class.ThreadClosure, ptr }
%class.ThreadClosure = type { ptr }

@_ZN6Thread12_thr_currentE = external thread_local global ptr, align 8
@.str.43 = private unnamed_addr constant [20 x i8] c"EnterInterpOnlyMode\00", align 1
@_ZTV13ThreadClosure = linkonce_odr hidden unnamed_addr constant { [3 x ptr] } { [3 x ptr] [ptr null, ptr null, ptr @__cxa_pure_virtual] }, comdat, align 8

; Function Attrs: mustprogress nounwind uwtable
define linkonce_odr hidden void @_ZN13ThreadClosureC2Ev(ptr noundef nonnull align 8 dereferenceable(8) %0) unnamed_addr #1 comdat align 2 {
  %2 = alloca ptr, align 8
  store ptr %0, ptr %2, align 8
  %3 = load ptr, ptr %2, align 8
  store ptr getelementptr inbounds inrange(-16, 8) ({ [3 x ptr] }, ptr @_ZTV13ThreadClosure, i32 0, i32 0, i32 2), ptr %3, align 8
  ret void
}

; Function Attrs: mustprogress nounwind uwtable
define linkonce_odr hidden void @_ZN16HandshakeClosureD2Ev(ptr noundef nonnull align 8 dereferenceable(16) %0) unnamed_addr #1 comdat align 2 {
  %2 = alloca ptr, align 8
  store ptr %0, ptr %2, align 8
  ret void
}

; Function Attrs: mustprogress nounwind uwtable
define linkonce_odr hidden void @_ZN16HandshakeClosureC2EPKc(ptr noundef nonnull align 8 dereferenceable(16) %0, ptr noundef %1) unnamed_addr #1 comdat align 2 {
  %3 = alloca ptr, align 8
  %4 = alloca ptr, align 8
  store ptr %0, ptr %3, align 8
  store ptr %1, ptr %4, align 8
  %5 = load ptr, ptr %3, align 8
  call void @_ZN13ThreadClosureC2Ev(ptr noundef nonnull align 8 dereferenceable(8) %5) #9
  store ptr getelementptr inbounds inrange(-16, 48) ({ [8 x ptr] }, ptr @_ZTV16HandshakeClosure, i32 0, i32 0, i32 2), ptr %5, align 8
  %6 = getelementptr inbounds %class.HandshakeClosure, ptr %5, i32 0, i32 1
  %7 = load ptr, ptr %4, align 8
  store ptr %7, ptr %6, align 8
  ret void
}

; Function Attrs: mustprogress nounwind uwtable
define linkonce_odr hidden noundef ptr @_ZN6Thread15current_or_nullEv() #1 comdat align 2 {
  %1 = call align 8 ptr @llvm.threadlocal.address.p0(ptr align 8 @_ZN6Thread12_thr_currentE)
  %2 = load ptr, ptr %1, align 8
  ret ptr %2
}

; Function Attrs: mustprogress nounwind uwtable
define linkonce_odr hidden void @_ZN26EnterInterpOnlyModeClosureD2Ev(ptr noundef nonnull align 8 dereferenceable(32) %0) unnamed_addr #1 comdat align 2 {
  %2 = alloca ptr, align 8
  store ptr %0, ptr %2, align 8
  %3 = load ptr, ptr %2, align 8
  call void @_ZN16HandshakeClosureD2Ev(ptr noundef nonnull align 8 dereferenceable(16) %3) #9
  ret void
}

; Function Attrs: mustprogress nounwind uwtable
define linkonce_odr hidden void @_ZN26EnterInterpOnlyModeClosureC2EP16JvmtiThreadState(ptr noundef nonnull align 8 dereferenceable(32) %0, ptr noundef %1) unnamed_addr #1 comdat align 2 {
  %3 = alloca ptr, align 8
  %4 = alloca ptr, align 8
  store ptr %0, ptr %3, align 8
  store ptr %1, ptr %4, align 8
  %5 = load ptr, ptr %3, align 8
  call void @_ZN16HandshakeClosureC2EPKc(ptr noundef nonnull align 8 dereferenceable(16) %5, ptr noundef @.str.43)
  store ptr getelementptr inbounds inrange(-16, 48) ({ [8 x ptr] }, ptr @_ZTV26EnterInterpOnlyModeClosure, i32 0, i32 0, i32 2), ptr %5, align 8
  %6 = getelementptr inbounds %class.EnterInterpOnlyModeClosure, ptr %5, i32 0, i32 1
  store i8 0, ptr %6, align 8
  %7 = getelementptr inbounds %class.EnterInterpOnlyModeClosure, ptr %5, i32 0, i32 2
  %8 = load ptr, ptr %4, align 8
  store ptr %8, ptr %7, align 8
  ret void
}

; Function Attrs: mustprogress nounwind uwtable
define linkonce_odr hidden noundef ptr @_ZN6Thread7currentEv() #1 comdat align 2 {
  %1 = alloca ptr, align 8
  %2 = call noundef ptr @_ZN6Thread15current_or_nullEv()
  store ptr %2, ptr %1, align 8
  %3 = load ptr, ptr %1, align 8
  ret ptr %3
}

; Function Attrs: mustprogress nounwind uwtable
define hidden void @_ZN20JvmtiEventController22enter_interp_only_modeEP16JvmtiThreadState(ptr noundef %0) #1 align 2 {
  %2 = alloca ptr, align 8
  %3 = alloca ptr, align 8
  %4 = alloca %class.EnterInterpOnlyModeClosure, align 8
  store ptr %0, ptr %2, align 8
  %5 = call noundef ptr @_ZN6Thread7currentEv()
  store ptr %5, ptr %3, align 8
  %6 = load ptr, ptr %2, align 8
  call void @_ZN26EnterInterpOnlyModeClosureC2EP16JvmtiThreadState(ptr noundef nonnull align 8 dereferenceable(32) %4, ptr noundef %6)
  %7 = load ptr, ptr %3, align 8
  call void @_ZN26EnterInterpOnlyModeClosure9do_threadEP6Thread(ptr noundef nonnull align 8 dereferenceable(32) %4, ptr noundef %7)
  call void @_ZN26EnterInterpOnlyModeClosureD2Ev(ptr noundef nonnull align 8 dereferenceable(32) %4) #9
  ret void
}