; Function Attrs: mustprogress nounwind uwtable
define hidden void @_ZN20JvmtiEventController22enter_interp_only_modeEP16JvmtiThreadState(ptr noundef %0) local_unnamed_addr #3 align 2 {
  %2 = alloca %class.EnterInterpOnlyModeClosure, align 8
  %3 = tail call align 8 ptr @llvm.threadlocal.address.p0(ptr align 8 @_ZN6Thread12_thr_currentE)
  %4 = load ptr, ptr %3, align 8
  %5 = getelementptr inbounds i8, ptr %2, i64 8
  store ptr @.str.43, ptr %5, align 8
  store ptr getelementptr inbounds inrange(-16, 48) (i8, ptr @_ZTV26EnterInterpOnlyModeClosure, i64 16), ptr %2, align 8
  %6 = getelementptr inbounds i8, ptr %2, i64 16
  store i8 0, ptr %6, align 8
  %7 = getelementptr inbounds i8, ptr %2, i64 24
  store ptr %0, ptr %7, align 8
  call void @_ZN26EnterInterpOnlyModeClosure9do_threadEP6Thread(ptr noundef nonnull align 8 dereferenceable(32) %2, ptr noundef %4)
  ret void
}